; Function Attrs: nounwind uwtable
define hidden void @ec_GFp_simple_group_finish(ptr noundef %0) local_unnamed_addr #0 {
  %2 = getelementptr inbounds nuw i8, ptr %0, i64 80
  tail call void @BN_free(ptr noundef nonnull %2) #5
  %3 = getelementptr inbounds nuw i8, ptr %0, i64 104
  tail call void @BN_free(ptr noundef nonnull %3) #5
  %4 = getelementptr inbounds nuw i8, ptr %0, i64 128
  tail call void @BN_free(ptr noundef nonnull %4) #5
  %5 = getelementptr inbounds nuw i8, ptr %0, i64 168
  tail call void @BN_free(ptr noundef nonnull %5) #5
  ret void
}